; Function Attrs: mustprogress nofree norecurse nosync nounwind willreturn memory(read, argmem: none, inaccessiblemem: write) uwtable
define i64 @duckdb_je_sz_psz_quantize_ceil(i64 noundef %0) local_unnamed_addr #0 {
  %2 = load i64, ptr @duckdb_je_sz_large_pad, align 8, !tbaa !3
  %3 = sub i64 %0, %2
  %4 = add i64 %3, 1
  %5 = icmp ugt i64 %4, 8070450532247928832
  br i1 %5, label %duckdb_je_sz_psz_quantize_floor.exit, label %sz_psz2ind.exit.i, !prof !7

sz_psz2ind.exit.i:                                ; preds = %1
  %6 = icmp ne i64 %4, 0
  tail call void @llvm.assume(i1 %6)
  %7 = tail call range(i64 0, 65) i64 @llvm.ctlz.i64(i64 %3, i1 false)
  %8 = trunc nuw nsw i64 %7 to i32
  %9 = tail call i32 @llvm.usub.sat.i32(i32 50, i32 %8)
  %10 = icmp ult i64 %3, 16384
  %11 = add nuw nsw i32 %9, 11
  %12 = zext nneg i32 %11 to i64
  %13 = select i1 %10, i64 12, i64 %12
  %14 = lshr i64 %3, %13
  %15 = trunc i64 %14 to i32
  %16 = and i32 %15, 3
  %17 = shl nuw nsw i32 %9, 2
  %18 = or disjoint i32 %16, %17
  %19 = icmp eq i32 %18, 0
  br i1 %19, label %duckdb_je_sz_psz_quantize_floor.exit.thread, label %duckdb_je_sz_psz_quantize_floor.exit

duckdb_je_sz_psz_quantize_floor.exit:             ; preds = %1, %sz_psz2ind.exit.i
  %.0.i8.i = phi i32 [ %18, %sz_psz2ind.exit.i ], [ 199, %1 ]
  %20 = add nsw i32 %.0.i8.i, -1
  %21 = zext nneg i32 %20 to i64
  %22 = getelementptr inbounds nuw [200 x i64], ptr @duckdb_je_sz_pind2sz_tab, i64 0, i64 %21
  %23 = load i64, ptr %22, align 8, !tbaa !3
  %24 = add i64 %23, %2
  %25 = icmp ult i64 %24, %0
  br i1 %25, label %26, label %duckdb_je_sz_psz_quantize_floor.exit.thread

26:                                               ; preds = %duckdb_je_sz_psz_quantize_floor.exit
  %27 = add i64 %23, 1
  %28 = icmp ugt i64 %27, 8070450532247928832
  br i1 %28, label %sz_psz2ind.exit, label %29, !prof !7

29:                                               ; preds = %26
  %30 = icmp ne i64 %27, 0
  tail call void @llvm.assume(i1 %30)
  %31 = tail call range(i64 0, 65) i64 @llvm.ctlz.i64(i64 %23, i1 false)
  %32 = trunc nuw nsw i64 %31 to i32
  %33 = tail call i32 @llvm.usub.sat.i32(i32 50, i32 %32)
  %34 = icmp ult i64 %23, 16384
  %35 = add nuw nsw i32 %33, 11
  %36 = zext nneg i32 %35 to i64
  %37 = select i1 %34, i64 12, i64 %36
  %38 = lshr i64 %23, %37
  %39 = trunc i64 %38 to i32
  %40 = and i32 %39, 3
  %41 = shl nuw nsw i32 %33, 2
  %42 = or disjoint i32 %40, %41
  %43 = zext nneg i32 %42 to i64
  br label %sz_psz2ind.exit

sz_psz2ind.exit:                                  ; preds = %26, %29
  %.0.i = phi i64 [ %43, %29 ], [ 199, %26 ]
  %44 = getelementptr inbounds nuw [200 x i64], ptr @duckdb_je_sz_pind2sz_tab, i64 0, i64 %.0.i
  %45 = load i64, ptr %44, align 8, !tbaa !3
  %46 = add i64 %45, %2
  br label %duckdb_je_sz_psz_quantize_floor.exit.thread

duckdb_je_sz_psz_quantize_floor.exit.thread:      ; preds = %sz_psz2ind.exit.i, %sz_psz2ind.exit, %duckdb_je_sz_psz_quantize_floor.exit
  %.0 = phi i64 [ %46, %sz_psz2ind.exit ], [ %24, %duckdb_je_sz_psz_quantize_floor.exit ], [ %0, %sz_psz2ind.exit.i ]
  ret i64 %.0
}